target datalayout = "e-m:e-p270:32:32-p271:32:32-p272:64:64-i64:64-i128:128-f80:128-n8:16:32:64-S128"
target triple = "x86_64-pc-linux-gnu"

%"class.std::__cxx11::basic_string" = type { %"struct.std::__cxx11::basic_string<char>::_Alloc_hider", i64, %union.anon }
%"struct.std::__cxx11::basic_string<char>::_Alloc_hider" = type { ptr }
%union.anon = type { i64, [8 x i8] }
%"class.std::__cxx11::basic_stringbuf" = type { %"class.std::basic_streambuf", i32, %"class.std::__cxx11::basic_string" }
%"class.std::basic_streambuf" = type { ptr, ptr, ptr, ptr, ptr, ptr, ptr, %"class.std::locale" }
%"class.std::locale" = type { ptr }
%"class.std::basic_ios" = type { %"class.std::ios_base", ptr, i8, i8, ptr, ptr, ptr, ptr }
%"class.std::ios_base" = type { ptr, i64, i64, i32, i32, i32, ptr, %"struct.std::ios_base::_Words", [8 x %"struct.std::ios_base::_Words"], i32, ptr, %"class.std::locale" }
%"struct.std::ios_base::_Words" = type { ptr, i64 }
%"class.std::__cxx11::basic_ostringstream" = type { %"class.std::basic_ostream.base", %"class.std::__cxx11::basic_stringbuf", %"class.std::basic_ios" }
%"class.std::basic_ostream.base" = type { ptr }
%"struct.std::_Setprecision" = type { i32 }

@__const._ZN4nori9memStringB5cxx11Emb.suffixes = private unnamed_addr constant [6 x ptr] [ptr @.str.13, ptr @.str.14, ptr @.str.15, ptr @.str.16, ptr @.str.17, ptr @.str.18], align 16
@.str.19 = private unnamed_addr constant [2 x i8] c" \00", align 1

; Function Attrs: mustprogress nounwind uwtable
define linkonce_odr dso_local i32 @_ZSt12setprecisioni(i32 noundef %0) #5 comdat {
  %2 = alloca %"struct.std::_Setprecision", align 4
  %3 = alloca i32, align 4
  store i32 %0, ptr %3, align 4
  %4 = getelementptr inbounds %"struct.std::_Setprecision", ptr %2, i32 0, i32 0
  %5 = load i32, ptr %3, align 4
  store i32 %5, ptr %4, align 4
  %6 = getelementptr inbounds %"struct.std::_Setprecision", ptr %2, i32 0, i32 0
  %7 = load i32, ptr %6, align 4
  ret i32 %7
}

; Function Attrs: mustprogress uwtable
define hidden void @_ZN4nori9memStringB5cxx11Emb(ptr dead_on_unwind noalias writable sret(%"class.std::__cxx11::basic_string") align 8 %0, i64 noundef %1, i1 noundef zeroext %2) #4 personality ptr @__gxx_personality_v0 {
  %4 = alloca ptr, align 8
  %5 = alloca i64, align 8
  %6 = alloca i8, align 1
  %7 = alloca double, align 8
  %8 = alloca [6 x ptr], align 16
  %9 = alloca i32, align 4
  %10 = alloca %"class.std::__cxx11::basic_ostringstream", align 8
  %11 = alloca %"struct.std::_Setprecision", align 4
  %12 = alloca ptr, align 8
  %13 = alloca i32, align 4
  store ptr %0, ptr %4, align 8
  store i64 %1, ptr %5, align 8
  %14 = zext i1 %2 to i8
  store i8 %14, ptr %6, align 1
  %15 = load i64, ptr %5, align 8
  %16 = uitofp i64 %15 to double
  store double %16, ptr %7, align 8
  call void @llvm.memcpy.p0.p0.i64(ptr align 16 %8, ptr align 16 @__const._ZN4nori9memStringB5cxx11Emb.suffixes, i64 48, i1 false)
  store i32 0, ptr %9, align 4
  br label %17

17:                                               ; preds = %25, %3
  %18 = load i32, ptr %9, align 4
  %19 = icmp slt i32 %18, 5
  br i1 %19, label %20, label %23

20:                                               ; preds = %17
  %21 = load double, ptr %7, align 8
  %22 = fcmp ogt double %21, 1.024000e+03
  br label %23

23:                                               ; preds = %20, %17
  %24 = phi i1 [ false, %17 ], [ %22, %20 ]
  br i1 %24, label %25, label %30

25:                                               ; preds = %23
  %26 = load double, ptr %7, align 8
  %27 = fdiv double %26, 1.024000e+03
  store double %27, ptr %7, align 8
  %28 = load i32, ptr %9, align 4
  %29 = add nsw i32 %28, 1
  store i32 %29, ptr %9, align 4
  br label %17, !llvm.loop !10

30:                                               ; preds = %23
  call void @_ZNSt7__cxx1119basic_ostringstreamIcSt11char_traitsIcESaIcEEC1Ev(ptr noundef nonnull align 8 dereferenceable(112) %10)
  %31 = load i32, ptr %9, align 4
  %32 = icmp eq i32 %31, 0
  br i1 %32, label %33, label %34

33:                                               ; preds = %30
  br label %38

34:                                               ; preds = %30
  %35 = load i8, ptr %6, align 1
  %36 = trunc i8 %35 to i1
  %37 = select i1 %36, i32 4, i32 1
  br label %38

38:                                               ; preds = %34, %33
  %39 = phi i32 [ 0, %33 ], [ %37, %34 ]
  %40 = invoke i32 @_ZSt12setprecisioni(i32 noundef %39)
          to label %41 unwind label %61

41:                                               ; preds = %38
  %42 = getelementptr inbounds %"struct.std::_Setprecision", ptr %11, i32 0, i32 0
  store i32 %40, ptr %42, align 4
  %43 = getelementptr inbounds %"struct.std::_Setprecision", ptr %11, i32 0, i32 0
  %44 = load i32, ptr %43, align 4
  %45 = invoke noundef nonnull align 8 dereferenceable(8) ptr @_ZStlsIcSt11char_traitsIcEERSt13basic_ostreamIT_T0_ES6_St13_Setprecision(ptr noundef nonnull align 8 dereferenceable(8) %10, i32 %44)
          to label %46 unwind label %61

46:                                               ; preds = %41
  %47 = invoke noundef nonnull align 8 dereferenceable(8) ptr @_ZNSolsEPFRSt8ios_baseS0_E(ptr noundef nonnull align 8 dereferenceable(8) %45, ptr noundef @_ZSt5fixedRSt8ios_base)
          to label %48 unwind label %61

48:                                               ; preds = %46
  %49 = load double, ptr %7, align 8
  %50 = invoke noundef nonnull align 8 dereferenceable(8) ptr @_ZNSolsEd(ptr noundef nonnull align 8 dereferenceable(8) %47, double noundef %49)
          to label %51 unwind label %61

51:                                               ; preds = %48
  %52 = invoke noundef nonnull align 8 dereferenceable(8) ptr @_ZStlsISt11char_traitsIcEERSt13basic_ostreamIcT_ES5_PKc(ptr noundef nonnull align 8 dereferenceable(8) %50, ptr noundef @.str.19)
          to label %53 unwind label %61

53:                                               ; preds = %51
  %54 = load i32, ptr %9, align 4
  %55 = sext i32 %54 to i64
  %56 = getelementptr inbounds [6 x ptr], ptr %8, i64 0, i64 %55
  %57 = load ptr, ptr %56, align 8
  %58 = invoke noundef nonnull align 8 dereferenceable(8) ptr @_ZStlsISt11char_traitsIcEERSt13basic_ostreamIcT_ES5_PKc(ptr noundef nonnull align 8 dereferenceable(8) %52, ptr noundef %57)
          to label %59 unwind label %61

59:                                               ; preds = %53
  invoke void @_ZNKSt7__cxx1119basic_ostringstreamIcSt11char_traitsIcESaIcEE3strEv(ptr dead_on_unwind writable sret(%"class.std::__cxx11::basic_string") align 8 %0, ptr noundef nonnull align 8 dereferenceable(112) %10)
          to label %60 unwind label %61

60:                                               ; preds = %59
  call void @_ZNSt7__cxx1119basic_ostringstreamIcSt11char_traitsIcESaIcEED1Ev(ptr noundef nonnull align 8 dereferenceable(112) %10) #3
  ret void

61:                                               ; preds = %59, %53, %51, %48, %46, %41, %38
  %62 = landingpad { ptr, i32 }
          cleanup
  %63 = extractvalue { ptr, i32 } %62, 0
  store ptr %63, ptr %12, align 8
  %64 = extractvalue { ptr, i32 } %62, 1
  store i32 %64, ptr %13, align 4
  call void @_ZNSt7__cxx1119basic_ostringstreamIcSt11char_traitsIcESaIcEED1Ev(ptr noundef nonnull align 8 dereferenceable(112) %10) #3
  br label %65

65:                                               ; preds = %61
  %66 = load ptr, ptr %12, align 8
  %67 = load i32, ptr %13, align 4
  %68 = insertvalue { ptr, i32 } poison, ptr %66, 0
  %69 = insertvalue { ptr, i32 } %68, i32 %67, 1
  resume { ptr, i32 } %69
}