; Function Attrs: mustprogress uwtable
define hidden void @_ZN4nori9memStringB5cxx11Emb(ptr dead_on_unwind noalias writable sret(%"class.std::__cxx11::basic_string") align 8 %0, i64 noundef %1, i1 noundef zeroext %2) local_unnamed_addr #3 personality ptr @__gxx_personality_v0 {
  %4 = alloca %"class.std::__cxx11::basic_ostringstream", align 8
  %5 = uitofp i64 %1 to double
  %6 = icmp ugt i64 %1, 1024
  br i1 %6, label %.lr.ph, label %14

.lr.ph:                                           ; preds = %3, %.lr.ph
  %.012 = phi double [ %7, %.lr.ph ], [ %5, %3 ]
  %.01011 = phi i32 [ %8, %.lr.ph ], [ 0, %3 ]
  %7 = fmul double %.012, 0x3F50000000000000
  %8 = add nuw nsw i32 %.01011, 1
  %9 = icmp ult i32 %.01011, 4
  %10 = fcmp ogt double %7, 1.024000e+03
  %11 = select i1 %9, i1 %10, i1 false
  br i1 %11, label %.lr.ph, label %._crit_edge, !llvm.loop !21

._crit_edge:                                      ; preds = %.lr.ph
  call void @_ZNSt7__cxx1119basic_ostringstreamIcSt11char_traitsIcESaIcEEC1Ev(ptr noundef nonnull align 8 dereferenceable(112) %4)
  %12 = select i1 %2, i32 4, i32 1
  %13 = zext nneg i32 %8 to i64
  br label %15

14:                                               ; preds = %3
  call void @_ZNSt7__cxx1119basic_ostringstreamIcSt11char_traitsIcESaIcEEC1Ev(ptr noundef nonnull align 8 dereferenceable(112) %4)
  br label %15

15:                                               ; preds = %._crit_edge, %14
  %.0.lcssa20 = phi double [ %5, %14 ], [ %7, %._crit_edge ]
  %.010.lcssa18 = phi i64 [ 0, %14 ], [ %13, %._crit_edge ]
  %16 = phi i32 [ 0, %14 ], [ %12, %._crit_edge ]
  %17 = invoke noundef nonnull align 8 dereferenceable(8) ptr @_ZStlsIcSt11char_traitsIcEERSt13basic_ostreamIT_T0_ES6_St13_Setprecision(ptr noundef nonnull align 8 dereferenceable(8) %4, i32 %16)
          to label %18 unwind label %30

18:                                               ; preds = %15
  %19 = invoke noundef nonnull align 8 dereferenceable(8) ptr @_ZNSolsEPFRSt8ios_baseS0_E(ptr noundef nonnull align 8 dereferenceable(8) %17, ptr noundef nonnull @_ZSt5fixedRSt8ios_base)
          to label %20 unwind label %30

20:                                               ; preds = %18
  %21 = invoke noundef nonnull align 8 dereferenceable(8) ptr @_ZNSolsEd(ptr noundef nonnull align 8 dereferenceable(8) %19, double noundef %.0.lcssa20)
          to label %22 unwind label %30

22:                                               ; preds = %20
  %23 = invoke noundef nonnull align 8 dereferenceable(8) ptr @_ZStlsISt11char_traitsIcEERSt13basic_ostreamIcT_ES5_PKc(ptr noundef nonnull align 8 dereferenceable(8) %21, ptr noundef nonnull @.str.19)
          to label %24 unwind label %30

24:                                               ; preds = %22
  %25 = getelementptr inbounds [6 x ptr], ptr @__const._ZN4nori9memStringB5cxx11Emb.suffixes, i64 0, i64 %.010.lcssa18
  %26 = load ptr, ptr %25, align 8
  %27 = invoke noundef nonnull align 8 dereferenceable(8) ptr @_ZStlsISt11char_traitsIcEERSt13basic_ostreamIcT_ES5_PKc(ptr noundef nonnull align 8 dereferenceable(8) %23, ptr noundef %26)
          to label %28 unwind label %30

28:                                               ; preds = %24
  invoke void @_ZNKSt7__cxx1119basic_ostringstreamIcSt11char_traitsIcESaIcEE3strEv(ptr dead_on_unwind writable sret(%"class.std::__cxx11::basic_string") align 8 %0, ptr noundef nonnull align 8 dereferenceable(112) %4)
          to label %29 unwind label %30

29:                                               ; preds = %28
  call void @_ZNSt7__cxx1119basic_ostringstreamIcSt11char_traitsIcESaIcEED1Ev(ptr noundef nonnull align 8 dereferenceable(112) %4) #26
  ret void

30:                                               ; preds = %28, %24, %22, %20, %18, %15
  %31 = landingpad { ptr, i32 }
          cleanup
  call void @_ZNSt7__cxx1119basic_ostringstreamIcSt11char_traitsIcESaIcEED1Ev(ptr noundef nonnull align 8 dereferenceable(112) %4) #26
  resume { ptr, i32 } %31
}